; Function Attrs: nofree norecurse nosync nounwind memory(argmem: readwrite) uwtable
define range(i32 -192, 1) i32 @wc_Sha256Final(ptr noundef %0, ptr noundef writeonly captures(address_is_null) %1) local_unnamed_addr #2 {
  %3 = icmp eq ptr %0, null
  %4 = icmp eq ptr %1, null
  %or.cond = or i1 %3, %4
  br i1 %or.cond, label %26, label %5

5:                                                ; preds = %2
  %6 = tail call fastcc i32 @Sha256Final(ptr noundef %0)
  %.not = icmp eq i32 %6, 0
  br i1 %.not, label %7, label %26

7:                                                ; preds = %5
  %8 = ptrtoint ptr %0 to i64
  %9 = and i64 %8, 3
  %or.cond.i = icmp eq i64 %9, 0
  br i1 %or.cond.i, label %.lr.ph26.i, label %.lr.ph.i

.lr.ph26.i:                                       ; preds = %7, %.lr.ph26.i
  %indvars.iv30.i = phi i64 [ %indvars.iv.next31.i, %.lr.ph26.i ], [ 0, %7 ]
  %10 = getelementptr inbounds nuw i32, ptr %0, i64 %indvars.iv30.i
  %11 = load i32, ptr %10, align 4, !tbaa !3
  %12 = tail call noundef i32 @llvm.bswap.i32(i32 %11)
  store i32 %12, ptr %10, align 4, !tbaa !3
  %indvars.iv.next31.i = add nuw nsw i64 %indvars.iv30.i, 1
  %exitcond.not.i = icmp eq i64 %indvars.iv.next31.i, 8
  br i1 %exitcond.not.i, label %ByteReverseWords.exit, label %.lr.ph26.i, !llvm.loop !13

.lr.ph.i:                                         ; preds = %7, %.lr.ph.i
  %indvars.iv.i = phi i64 [ %indvars.iv.next.i, %.lr.ph.i ], [ 0, %7 ]
  %13 = getelementptr inbounds nuw i8, ptr %0, i64 %indvars.iv.i
  %.0.copyload.i = load i32, ptr %13, align 1
  %14 = tail call noundef i32 @llvm.bswap.i32(i32 %.0.copyload.i)
  store i32 %14, ptr %13, align 1
  %indvars.iv.next.i = add nuw nsw i64 %indvars.iv.i, 4
  %15 = icmp samesign ult i64 %indvars.iv.i, 28
  br i1 %15, label %.lr.ph.i, label %ByteReverseWords.exit, !llvm.loop !15

ByteReverseWords.exit:                            ; preds = %.lr.ph.i, %.lr.ph26.i
  tail call void @llvm.memcpy.p0.p0.i64(ptr noundef nonnull align 1 dereferenceable(32) %1, ptr noundef nonnull align 16 dereferenceable(32) %0, i64 32, i1 false)
  store i32 1779033703, ptr %0, align 16, !tbaa !3
  %16 = getelementptr inbounds nuw i8, ptr %0, i64 4
  store i32 -1150833019, ptr %16, align 4, !tbaa !3
  %17 = getelementptr inbounds nuw i8, ptr %0, i64 8
  store i32 1013904242, ptr %17, align 8, !tbaa !3
  %18 = getelementptr inbounds nuw i8, ptr %0, i64 12
  store i32 -1521486534, ptr %18, align 4, !tbaa !3
  %19 = getelementptr inbounds nuw i8, ptr %0, i64 16
  store i32 1359893119, ptr %19, align 16, !tbaa !3
  %20 = getelementptr inbounds nuw i8, ptr %0, i64 20
  store i32 -1694144372, ptr %20, align 4, !tbaa !3
  %21 = getelementptr inbounds nuw i8, ptr %0, i64 24
  store i32 528734635, ptr %21, align 8, !tbaa !3
  %22 = getelementptr inbounds nuw i8, ptr %0, i64 28
  store i32 1541459225, ptr %22, align 4, !tbaa !3
  %23 = getelementptr inbounds nuw i8, ptr %0, i64 96
  store i32 0, ptr %23, align 16, !tbaa !7
  %24 = getelementptr inbounds nuw i8, ptr %0, i64 100
  store i32 0, ptr %24, align 4, !tbaa !10
  %25 = getelementptr inbounds nuw i8, ptr %0, i64 104
  store i32 0, ptr %25, align 8, !tbaa !11
  br label %26

26:                                               ; preds = %5, %2, %ByteReverseWords.exit
  %.0 = phi i32 [ 0, %ByteReverseWords.exit ], [ -173, %2 ], [ %6, %5 ]
  ret i32 %.0
}